; Function Attrs: mustprogress uwtable
define void @_ZN6icu_756Locale15setKeywordValueEPKcS2_R10UErrorCode(ptr noundef nonnull align 8 dereferenceable(217) %this, ptr noundef %keywordName, ptr noundef %keywordValue, ptr noundef nonnull align 4 dereferenceable(4) %status) local_unnamed_addr #1 align 2 {
entry:
  %0 = load i32, ptr %status, align 4
  %cmp.i = icmp slt i32 %0, 1
  br i1 %cmp.i, label %if.end, label %if.end38

if.end:                                           ; preds = %entry
  %cmp = icmp eq i32 %0, -124
  br i1 %cmp, label %if.then2, label %if.end3

if.then2:                                         ; preds = %if.end
  store i32 0, ptr %status, align 4
  br label %if.end3

if.end3:                                          ; preds = %if.then2, %if.end
  %fullName = getelementptr inbounds i8, ptr %this, i64 40
  %1 = load ptr, ptr %fullName, align 8
  %call4 = tail call i64 @strlen(ptr noundef nonnull dereferenceable(1) %1) #23
  %2 = trunc i64 %call4 to i32
  %conv = add i32 %2, 1
  %call5 = tail call i32 @uprv_max_75(i32 noundef %conv, i32 noundef 157)
  %3 = load ptr, ptr %fullName, align 8
  %call7 = tail call i32 @uloc_setKeywordValue_75(ptr noundef %keywordName, ptr noundef %keywordValue, ptr noundef %3, i32 noundef %call5, ptr noundef nonnull %status)
  %add8 = add nsw i32 %call7, 1
  %4 = load i32, ptr %status, align 4
  %cmp9 = icmp eq i32 %4, 15
  br i1 %cmp9, label %if.then10, label %if.end31

if.then10:                                        ; preds = %if.end3
  %conv11 = sext i32 %add8 to i64
  %call12 = tail call noalias ptr @uprv_malloc_75(i64 noundef %conv11) #21
  %cmp13 = icmp eq ptr %call12, null
  br i1 %cmp13, label %if.then14, label %if.end15

if.then14:                                        ; preds = %if.then10
  store i32 7, ptr %status, align 4
  br label %if.end38

if.end15:                                         ; preds = %if.then10
  %5 = load ptr, ptr %fullName, align 8
  %call17 = tail call ptr @strcpy(ptr noundef nonnull dereferenceable(1) %call12, ptr noundef nonnull dereferenceable(1) %5) #20
  %fullNameBuffer = getelementptr inbounds i8, ptr %this, i64 48
  %cmp19.not = icmp eq ptr %5, %fullNameBuffer
  br i1 %cmp19.not, label %if.end27, label %if.then20

if.then20:                                        ; preds = %if.end15
  tail call void @uprv_free_75(ptr noundef %5)
  %baseName = getelementptr inbounds i8, ptr %this, i64 208
  %6 = load ptr, ptr %baseName, align 8
  %7 = load ptr, ptr %fullName, align 8
  %cmp23 = icmp eq ptr %6, %7
  br i1 %cmp23, label %if.then24, label %if.end27

if.then24:                                        ; preds = %if.then20
  store ptr %call12, ptr %baseName, align 8
  br label %if.end27

if.end27:                                         ; preds = %if.then20, %if.then24, %if.end15
  store ptr %call12, ptr %fullName, align 8
  store i32 0, ptr %status, align 4
  %8 = load ptr, ptr %fullName, align 8
  %call30 = tail call i32 @uloc_setKeywordValue_75(ptr noundef %keywordName, ptr noundef %keywordValue, ptr noundef %8, i32 noundef %add8, ptr noundef nonnull %status)
  %.pr = load i32, ptr %status, align 4
  br label %if.end31

if.end31:                                         ; preds = %if.end3, %if.end27
  %9 = phi i32 [ %4, %if.end3 ], [ %.pr, %if.end27 ]
  %cmp.i16 = icmp sgt i32 %9, 0
  br i1 %cmp.i16, label %if.end38, label %land.lhs.true

land.lhs.true:                                    ; preds = %if.end31
  %baseName34 = getelementptr inbounds i8, ptr %this, i64 208
  %10 = load ptr, ptr %baseName34, align 8
  %11 = load ptr, ptr %fullName, align 8
  %cmp36.not = icmp eq ptr %10, %11
  br i1 %cmp36.not, label %if.end.i, label %if.end38

if.end.i:                                         ; preds = %land.lhs.true
  %call2.i = tail call noundef ptr @strchr(ptr noundef nonnull dereferenceable(1) %10, i32 noundef 64) #23
  %call4.i = tail call noundef ptr @strchr(ptr noundef nonnull dereferenceable(1) %10, i32 noundef 61) #23
  %tobool5.i = icmp ne ptr %call2.i, null
  %cmp.i18 = icmp ult ptr %call2.i, %call4.i
  %or.cond10.i = and i1 %tobool5.i, %cmp.i18
  br i1 %or.cond10.i, label %if.then8.i, label %if.end38

if.then8.i:                                       ; preds = %if.end.i
  %sub.ptr.lhs.cast.i = ptrtoint ptr %call2.i to i64
  %sub.ptr.rhs.cast.i = ptrtoint ptr %10 to i64
  %sub.ptr.sub.i = sub i64 %sub.ptr.lhs.cast.i, %sub.ptr.rhs.cast.i
  %conv.i19 = trunc i64 %sub.ptr.sub.i to i32
  %add.i = shl i64 %sub.ptr.sub.i, 32
  %sext.i = add i64 %add.i, 4294967296
  %conv10.i = ashr exact i64 %sext.i, 32
  %call11.i = tail call noalias ptr @uprv_malloc_75(i64 noundef %conv10.i) #21
  store ptr %call11.i, ptr %baseName34, align 8
  %cmp13.i = icmp eq ptr %call11.i, null
  br i1 %cmp13.i, label %if.then14.i, label %if.end15.i

if.then14.i:                                      ; preds = %if.then8.i
  store i32 7, ptr %status, align 4
  br label %if.end38

if.end15.i:                                       ; preds = %if.then8.i
  %12 = load ptr, ptr %fullName, align 8
  %conv18.i = ashr exact i64 %add.i, 32
  %call19.i = tail call ptr @strncpy(ptr noundef nonnull %call11.i, ptr noundef %12, i64 noundef %conv18.i) #20
  %arrayidx.i = getelementptr inbounds i8, ptr %call11.i, i64 %conv18.i
  store i8 0, ptr %arrayidx.i, align 1
  %variantBegin.i = getelementptr inbounds i8, ptr %this, i64 32
  %13 = load i32, ptr %variantBegin.i, align 8
  %cmp21.i = icmp sgt i32 %13, %conv.i19
  br i1 %cmp21.i, label %if.then22.i, label %if.end38

if.then22.i:                                      ; preds = %if.end15.i
  store i32 %conv.i19, ptr %variantBegin.i, align 8
  br label %if.end38

if.end38:                                         ; preds = %if.end.i, %land.lhs.true, %if.then22.i, %if.end15.i, %if.then14.i, %entry, %if.end31, %if.then14
  ret void
}